target datalayout = "e-m:e-p270:32:32-p271:32:32-p272:64:64-i64:64-i128:128-f80:128-n8:16:32:64-S128"
target triple = "x86_64-pc-linux-gnu"

%struct.option = type { i32, i32, ptr, ptr, ptr, ptr, i32, ptr, i64, ptr, i64, ptr }
%struct.repository = type { ptr, ptr, ptr, ptr, ptr, %struct.strmap, %struct.strmap, %struct.repo_path_cache, ptr, ptr, ptr, ptr, %struct.repo_settings, ptr, ptr, ptr, ptr, ptr, ptr, i32, i32, i32, ptr, ptr, i32, i32, i8 }
%struct.strmap = type { %struct.hashmap, ptr, i8 }
%struct.hashmap = type { ptr, ptr, ptr, i32, i32, i32, i32, i8 }
%struct.repo_path_cache = type { ptr, ptr, ptr, ptr, ptr, ptr, ptr }
%struct.repo_settings = type { i32, i32, i32, i32, i32, i32, i32, i32, i32, i32, i32, i32, ptr, i32, i32, i32, i32, i32, i32, i32, i64, i64, i64 }
%struct.pattern_list = type { i32, i32, ptr, ptr, i32, i32, %struct.hashmap, %struct.hashmap }

@the_repository = external global ptr, align 8
@core_apply_sparse_checkout = external global i32, align 4
@.str.24 = private unnamed_addr constant [3 x i8] c"/*\00", align 1
@empty_base = internal global ptr @.str.8, align 8
@sparse_checkout_disable.builtin_sparse_checkout_disable_options = internal global [1 x %struct.option] zeroinitializer, align 16
@builtin_sparse_checkout_disable_usage = internal constant [2 x ptr] [ptr @.str.65, ptr null], align 16
@give_advice_on_expansion = external global i32, align 4
@.str.64 = private unnamed_addr constant [41 x i8] c"error while refreshing working directory\00", align 1

; Function Attrs: nounwind uwtable
define internal i32 @sparse_checkout_disable(i32 noundef %0, ptr noundef %1, ptr noundef %2, ptr noundef %3) #0 {
  %5 = alloca i32, align 4
  %6 = alloca ptr, align 8
  %7 = alloca ptr, align 8
  %8 = alloca ptr, align 8
  %9 = alloca %struct.pattern_list, align 8
  store i32 %0, ptr %5, align 4, !tbaa !4
  store ptr %1, ptr %6, align 8, !tbaa !8
  store ptr %2, ptr %7, align 8, !tbaa !11
  store ptr %3, ptr %8, align 8, !tbaa !13
  call void @llvm.lifetime.start.p0(i64 128, ptr %9) #9
  call void @setup_work_tree()
  %10 = load i32, ptr %5, align 4, !tbaa !4
  %11 = load ptr, ptr %6, align 8, !tbaa !8
  %12 = load ptr, ptr %7, align 8, !tbaa !11
  %13 = call i32 @parse_options(i32 noundef %10, ptr noundef %11, ptr noundef %12, ptr noundef @sparse_checkout_disable.builtin_sparse_checkout_disable_options, ptr noundef @builtin_sparse_checkout_disable_usage, i32 noundef 0)
  store i32 %13, ptr %5, align 4, !tbaa !4
  store i32 0, ptr @give_advice_on_expansion, align 4, !tbaa !4
  %14 = load ptr, ptr @the_repository, align 8, !tbaa !13
  %15 = call i32 @repo_read_index(ptr noundef %14)
  call void @llvm.memset.p0.i64(ptr align 8 %9, i8 0, i64 128, i1 false)
  %16 = getelementptr inbounds nuw %struct.pattern_list, ptr %9, i32 0, i32 6
  call void @hashmap_init(ptr noundef %16, ptr noundef @pl_hashmap_cmp, ptr noundef null, i64 noundef 0)
  %17 = getelementptr inbounds nuw %struct.pattern_list, ptr %9, i32 0, i32 7
  call void @hashmap_init(ptr noundef %17, ptr noundef @pl_hashmap_cmp, ptr noundef null, i64 noundef 0)
  %18 = getelementptr inbounds nuw %struct.pattern_list, ptr %9, i32 0, i32 4
  store i32 0, ptr %18, align 8, !tbaa !48
  store i32 1, ptr @core_apply_sparse_checkout, align 4, !tbaa !4
  %19 = load ptr, ptr @empty_base, align 8, !tbaa !11
  call void @add_pattern(ptr noundef @.str.24, ptr noundef %19, i32 noundef 0, ptr noundef %9, i32 noundef 0)
  %20 = load ptr, ptr @the_repository, align 8, !tbaa !13
  call void @prepare_repo_settings(ptr noundef %20)
  %21 = load ptr, ptr @the_repository, align 8, !tbaa !13
  %22 = getelementptr inbounds nuw %struct.repository, ptr %21, i32 0, i32 12
  %23 = getelementptr inbounds nuw %struct.repo_settings, ptr %22, i32 0, i32 7
  store i32 0, ptr %23, align 4, !tbaa !85
  %24 = call i32 @update_working_directory(ptr noundef %9)
  %25 = icmp ne i32 %24, 0
  br i1 %25, label %26, label %28

26:                                               ; preds = %4
  %27 = call ptr @_(ptr noundef @.str.64)
  call void (ptr, ...) @die(ptr noundef %27) #10
  unreachable

28:                                               ; preds = %4
  call void @clear_pattern_list(ptr noundef %9)
  %29 = call i32 @set_config(i32 noundef 0)
  call void @llvm.lifetime.end.p0(i64 128, ptr %9) #9
  ret i32 %29
}