; Function Attrs: nounwind uwtable
define internal i32 @sparse_checkout_disable(i32 noundef %0, ptr noundef %1, ptr noundef %2, ptr readnone captures(none) %3) #0 {
  %5 = alloca %struct.pattern_list, align 8
  call void @llvm.lifetime.start.p0(i64 128, ptr nonnull %5) #13
  tail call void @setup_work_tree() #13
  %6 = tail call i32 @parse_options(i32 noundef %0, ptr noundef %1, ptr noundef %2, ptr noundef nonnull @sparse_checkout_disable.builtin_sparse_checkout_disable_options, ptr noundef nonnull @builtin_sparse_checkout_disable_usage, i32 noundef 0) #13
  store i32 0, ptr @give_advice_on_expansion, align 4, !tbaa !37
  %7 = load ptr, ptr @the_repository, align 8, !tbaa !17
  %8 = tail call i32 @repo_read_index(ptr noundef %7) #13
  call void @llvm.memset.p0.i64(ptr noundef nonnull align 8 dereferenceable(128) %5, i8 0, i64 128, i1 false)
  %9 = getelementptr inbounds nuw i8, ptr %5, i64 32
  call void @hashmap_init(ptr noundef nonnull %9, ptr noundef nonnull @pl_hashmap_cmp, ptr noundef null, i64 noundef 0) #13
  %10 = getelementptr inbounds nuw i8, ptr %5, i64 80
  call void @hashmap_init(ptr noundef nonnull %10, ptr noundef nonnull @pl_hashmap_cmp, ptr noundef null, i64 noundef 0) #13
  %11 = getelementptr inbounds nuw i8, ptr %5, i64 24
  store i32 0, ptr %11, align 8, !tbaa !38
  store i32 1, ptr @core_apply_sparse_checkout, align 4, !tbaa !37
  call void @add_pattern(ptr noundef nonnull @.str.24, ptr noundef nonnull @.str.8, i32 noundef 0, ptr noundef nonnull %5, i32 noundef 0) #13
  %12 = load ptr, ptr @the_repository, align 8, !tbaa !17
  call void @prepare_repo_settings(ptr noundef %12) #13
  %13 = load ptr, ptr @the_repository, align 8, !tbaa !17
  %14 = getelementptr inbounds nuw i8, ptr %13, i64 284
  store i32 0, ptr %14, align 4, !tbaa !78
  %15 = call fastcc i32 @update_working_directory(ptr noundef nonnull %5)
  %.not = icmp eq i32 %15, 0
  br i1 %.not, label %18, label %16

16:                                               ; preds = %4
  %17 = call fastcc ptr @_(ptr noundef nonnull @.str.64)
  call void (ptr, ...) @die(ptr noundef %17) #14
  unreachable

18:                                               ; preds = %4
  call void @clear_pattern_list(ptr noundef nonnull %5) #13
  %19 = call fastcc i32 @set_config(i32 noundef 0)
  call void @llvm.lifetime.end.p0(i64 128, ptr nonnull %5) #13
  ret i32 %19
}